target datalayout = "e-m:e-p270:32:32-p271:32:32-p272:64:64-i64:64-i128:128-f80:128-n8:16:32:64-S128"
target triple = "x86_64-unknown-linux-gnu"

%"struct.node::AssertionInfo" = type { ptr, ptr, ptr }
%struct.UIDNAInfo = type { i16, i8, i8, i32, i32, i32 }
%"class.node::MaybeStackBuffer" = type { i64, i64, ptr, [1024 x i8] }

@__const._ZN4node4i18n7ToASCIIEPNS_16MaybeStackBufferIcLm1024EEEPKcmNS0_9idna_modeE.info = private unnamed_addr constant %struct.UIDNAInfo { i16 16, i8 0, i8 0, i32 0, i32 0, i32 0 }, align 4
@_ZZN4node16MaybeStackBufferIcLm1024EE9SetLengthEmE4args = linkonce_odr dso_local constant %"struct.node::AssertionInfo" { ptr @.str.85, ptr @.str.86, ptr @.str.87 }, comdat, align 8

; Function Attrs: mustprogress nounwind uwtable
define linkonce_odr dso_local void @_ZN4node16MaybeStackBufferIcLm1024EE9SetLengthEm(ptr noundef nonnull align 8 dereferenceable(1048) %this, i64 noundef %length) #4 comdat align 2 {
entry:
  %this.addr = alloca ptr, align 8
  %length.addr = alloca i64, align 8
  store ptr %this, ptr %this.addr, align 8
  store i64 %length, ptr %length.addr, align 8
  %this1 = load ptr, ptr %this.addr, align 8
  br label %do.body

do.body:                                          ; preds = %entry
  %0 = load i64, ptr %length.addr, align 8
  %call = call noundef i64 @_ZNK4node16MaybeStackBufferIcLm1024EE8capacityEv(ptr noundef nonnull align 8 dereferenceable(1048) %this1)
  %cmp = icmp ule i64 %0, %call
  %lnot = xor i1 %cmp, true
  %lnot2 = xor i1 %lnot, true
  %lnot3 = xor i1 %lnot2, true
  br i1 %lnot3, label %if.then, label %if.end

if.then:                                          ; preds = %do.body
  br label %do.body4

do.body4:                                         ; preds = %if.then
  call void @_ZN4node6AssertERKNS_13AssertionInfoE(ptr noundef nonnull align 8 dereferenceable(24) @_ZZN4node16MaybeStackBufferIcLm1024EE9SetLengthEmE4args)
  call void @abort() #14
  unreachable

do.end:                                           ; No predecessors!
  br label %if.end

if.end:                                           ; preds = %do.end, %do.body
  br label %do.end5

do.end5:                                          ; preds = %if.end
  %1 = load i64, ptr %length.addr, align 8
  %length_ = getelementptr inbounds %"class.node::MaybeStackBuffer", ptr %this1, i32 0, i32 0
  store i64 %1, ptr %length_, align 8
  ret void
}

; Function Attrs: mustprogress nounwind uwtable
define linkonce_odr dso_local noundef i64 @_ZNK4node16MaybeStackBufferIcLm1024EE8capacityEv(ptr noundef nonnull align 8 dereferenceable(1048) %this) #4 comdat align 2 {
entry:
  %this.addr = alloca ptr, align 8
  store ptr %this, ptr %this.addr, align 8
  %this1 = load ptr, ptr %this.addr, align 8
  %capacity_ = getelementptr inbounds %"class.node::MaybeStackBuffer", ptr %this1, i32 0, i32 1
  %0 = load i64, ptr %capacity_, align 8
  ret i64 %0
}

; Function Attrs: mustprogress nounwind uwtable
define linkonce_odr dso_local noundef ptr @_ZN4node16MaybeStackBufferIcLm1024EEdeEv(ptr noundef nonnull align 8 dereferenceable(1048) %this) #4 comdat align 2 {
entry:
  %this.addr = alloca ptr, align 8
  store ptr %this, ptr %this.addr, align 8
  %this1 = load ptr, ptr %this.addr, align 8
  %buf_ = getelementptr inbounds %"class.node::MaybeStackBuffer", ptr %this1, i32 0, i32 2
  %0 = load ptr, ptr %buf_, align 8
  ret ptr %0
}

; Function Attrs: mustprogress nounwind uwtable
define internal noundef signext i8 @_ZL9U_FAILURE10UErrorCode(i32 noundef %code) #4 {
entry:
  %code.addr = alloca i32, align 4
  store i32 %code, ptr %code.addr, align 4
  %0 = load i32, ptr %code.addr, align 4
  %cmp = icmp sgt i32 %0, 0
  %conv = zext i1 %cmp to i8
  ret i8 %conv
}

; Function Attrs: mustprogress nounwind uwtable
define dso_local noundef i32 @_ZN4node4i18n7ToASCIIEPNS_16MaybeStackBufferIcLm1024EEEPKcmNS0_9idna_modeE(ptr noundef %buf, ptr noundef %input, i64 noundef %length, i32 noundef %mode) #4 {
entry:
  %retval = alloca i32, align 4
  %buf.addr = alloca ptr, align 8
  %input.addr = alloca ptr, align 8
  %length.addr = alloca i64, align 8
  %mode.addr = alloca i32, align 4
  %status = alloca i32, align 4
  %options = alloca i32, align 4
  %uidna = alloca ptr, align 8
  %info = alloca %struct.UIDNAInfo, align 4
  %len = alloca i32, align 4
  store ptr %buf, ptr %buf.addr, align 8
  store ptr %input, ptr %input.addr, align 8
  store i64 %length, ptr %length.addr, align 8
  store i32 %mode, ptr %mode.addr, align 4
  store i32 0, ptr %status, align 4
  store i32 28, ptr %options, align 4
  %0 = load i32, ptr %mode.addr, align 4
  %cmp = icmp eq i32 %0, 2
  br i1 %cmp, label %if.then, label %if.end

if.then:                                          ; preds = %entry
  %1 = load i32, ptr %options, align 4
  %or = or i32 %1, 2
  store i32 %or, ptr %options, align 4
  br label %if.end

if.end:                                           ; preds = %if.then, %entry
  %2 = load i32, ptr %options, align 4
  %call = call ptr @uidna_openUTS46_74(i32 noundef %2, ptr noundef %status)
  store ptr %call, ptr %uidna, align 8
  %3 = load i32, ptr %status, align 4
  %call1 = call noundef signext i8 @_ZL9U_FAILURE10UErrorCode(i32 noundef %3)
  %tobool = icmp ne i8 %call1, 0
  br i1 %tobool, label %if.then2, label %if.end3

if.then2:                                         ; preds = %if.end
  store i32 -1, ptr %retval, align 4
  br label %return

if.end3:                                          ; preds = %if.end
  call void @llvm.memcpy.p0.p0.i64(ptr align 4 %info, ptr align 4 @__const._ZN4node4i18n7ToASCIIEPNS_16MaybeStackBufferIcLm1024EEEPKcmNS0_9idna_modeE.info, i64 16, i1 false)
  %4 = load ptr, ptr %uidna, align 8
  %5 = load ptr, ptr %input.addr, align 8
  %6 = load i64, ptr %length.addr, align 8
  %conv = trunc i64 %6 to i32
  %7 = load ptr, ptr %buf.addr, align 8
  %call4 = call noundef ptr @_ZN4node16MaybeStackBufferIcLm1024EEdeEv(ptr noundef nonnull align 8 dereferenceable(1048) %7)
  %8 = load ptr, ptr %buf.addr, align 8
  %call5 = call noundef i64 @_ZNK4node16MaybeStackBufferIcLm1024EE8capacityEv(ptr noundef nonnull align 8 dereferenceable(1048) %8)
  %conv6 = trunc i64 %call5 to i32
  %call7 = call i32 @uidna_nameToASCII_UTF8_74(ptr noundef %4, ptr noundef %5, i32 noundef %conv, ptr noundef %call4, i32 noundef %conv6, ptr noundef %info, ptr noundef %status)
  store i32 %call7, ptr %len, align 4
  %9 = load i32, ptr %status, align 4
  %cmp8 = icmp eq i32 %9, 15
  br i1 %cmp8, label %if.then9, label %if.end16

if.then9:                                         ; preds = %if.end3
  store i32 0, ptr %status, align 4
  %10 = load ptr, ptr %buf.addr, align 8
  %11 = load i32, ptr %len, align 4
  %conv10 = sext i32 %11 to i64
  call void @_ZN4node16MaybeStackBufferIcLm1024EE25AllocateSufficientStorageEm(ptr noundef nonnull align 8 dereferenceable(1048) %10, i64 noundef %conv10)
  %12 = load ptr, ptr %uidna, align 8
  %13 = load ptr, ptr %input.addr, align 8
  %14 = load i64, ptr %length.addr, align 8
  %conv11 = trunc i64 %14 to i32
  %15 = load ptr, ptr %buf.addr, align 8
  %call12 = call noundef ptr @_ZN4node16MaybeStackBufferIcLm1024EEdeEv(ptr noundef nonnull align 8 dereferenceable(1048) %15)
  %16 = load ptr, ptr %buf.addr, align 8
  %call13 = call noundef i64 @_ZNK4node16MaybeStackBufferIcLm1024EE8capacityEv(ptr noundef nonnull align 8 dereferenceable(1048) %16)
  %conv14 = trunc i64 %call13 to i32
  %call15 = call i32 @uidna_nameToASCII_UTF8_74(ptr noundef %12, ptr noundef %13, i32 noundef %conv11, ptr noundef %call12, i32 noundef %conv14, ptr noundef %info, ptr noundef %status)
  store i32 %call15, ptr %len, align 4
  br label %if.end16

if.end16:                                         ; preds = %if.then9, %if.end3
  %errors = getelementptr inbounds %struct.UIDNAInfo, ptr %info, i32 0, i32 3
  %17 = load i32, ptr %errors, align 4
  %and = and i32 %17, -33
  store i32 %and, ptr %errors, align 4
  %errors17 = getelementptr inbounds %struct.UIDNAInfo, ptr %info, i32 0, i32 3
  %18 = load i32, ptr %errors17, align 4
  %and18 = and i32 %18, -9
  store i32 %and18, ptr %errors17, align 4
  %errors19 = getelementptr inbounds %struct.UIDNAInfo, ptr %info, i32 0, i32 3
  %19 = load i32, ptr %errors19, align 4
  %and20 = and i32 %19, -17
  store i32 %and20, ptr %errors19, align 4
  %20 = load i32, ptr %mode.addr, align 4
  %cmp21 = icmp ne i32 %20, 2
  br i1 %cmp21, label %if.then22, label %if.end29

if.then22:                                        ; preds = %if.end16
  %errors23 = getelementptr inbounds %struct.UIDNAInfo, ptr %info, i32 0, i32 3
  %21 = load i32, ptr %errors23, align 4
  %and24 = and i32 %21, -2
  store i32 %and24, ptr %errors23, align 4
  %errors25 = getelementptr inbounds %struct.UIDNAInfo, ptr %info, i32 0, i32 3
  %22 = load i32, ptr %errors25, align 4
  %and26 = and i32 %22, -3
  store i32 %and26, ptr %errors25, align 4
  %errors27 = getelementptr inbounds %struct.UIDNAInfo, ptr %info, i32 0, i32 3
  %23 = load i32, ptr %errors27, align 4
  %and28 = and i32 %23, -5
  store i32 %and28, ptr %errors27, align 4
  br label %if.end29

if.end29:                                         ; preds = %if.then22, %if.end16
  %24 = load i32, ptr %status, align 4
  %call30 = call noundef signext i8 @_ZL9U_FAILURE10UErrorCode(i32 noundef %24)
  %tobool31 = icmp ne i8 %call30, 0
  br i1 %tobool31, label %if.then35, label %lor.lhs.false

lor.lhs.false:                                    ; preds = %if.end29
  %25 = load i32, ptr %mode.addr, align 4
  %cmp32 = icmp ne i32 %25, 1
  br i1 %cmp32, label %land.lhs.true, label %if.else

land.lhs.true:                                    ; preds = %lor.lhs.false
  %errors33 = getelementptr inbounds %struct.UIDNAInfo, ptr %info, i32 0, i32 3
  %26 = load i32, ptr %errors33, align 4
  %cmp34 = icmp ne i32 %26, 0
  br i1 %cmp34, label %if.then35, label %if.else

if.then35:                                        ; preds = %land.lhs.true, %if.end29
  store i32 -1, ptr %len, align 4
  %27 = load ptr, ptr %buf.addr, align 8
  call void @_ZN4node16MaybeStackBufferIcLm1024EE9SetLengthEm(ptr noundef nonnull align 8 dereferenceable(1048) %27, i64 noundef 0)
  br label %if.end37

if.else:                                          ; preds = %land.lhs.true, %lor.lhs.false
  %28 = load ptr, ptr %buf.addr, align 8
  %29 = load i32, ptr %len, align 4
  %conv36 = sext i32 %29 to i64
  call void @_ZN4node16MaybeStackBufferIcLm1024EE9SetLengthEm(ptr noundef nonnull align 8 dereferenceable(1048) %28, i64 noundef %conv36)
  br label %if.end37

if.end37:                                         ; preds = %if.else, %if.then35
  %30 = load ptr, ptr %uidna, align 8
  call void @uidna_close_74(ptr noundef %30)
  %31 = load i32, ptr %len, align 4
  store i32 %31, ptr %retval, align 4
  br label %return

return:                                           ; preds = %if.end37, %if.then2
  %32 = load i32, ptr %retval, align 4
  ret i32 %32
}