; Function Attrs: mustprogress nounwind uwtable
define dso_local noundef i32 @_ZN4node4i18n7ToASCIIEPNS_16MaybeStackBufferIcLm1024EEEPKcmNS0_9idna_modeE(ptr noundef %buf, ptr noundef %input, i64 noundef %length, i32 noundef %mode) local_unnamed_addr #3 {
entry:
  %status = alloca i32, align 4
  %info = alloca %struct.UIDNAInfo, align 4
  store i32 0, ptr %status, align 4
  %cmp = icmp eq i32 %mode, 2
  %spec.select = select i1 %cmp, i32 30, i32 28
  %call = call ptr @uidna_openUTS46_74(i32 noundef %spec.select, ptr noundef nonnull %status) #21
  %0 = load i32, ptr %status, align 4
  %cmp.i = icmp slt i32 %0, 1
  br i1 %cmp.i, label %if.end3, label %return

if.end3:                                          ; preds = %entry
  call void @llvm.memcpy.p0.p0.i64(ptr noundef nonnull align 4 dereferenceable(16) %info, ptr noundef nonnull align 4 dereferenceable(16) @__const._ZN4node4i18n7ToASCIIEPNS_16MaybeStackBufferIcLm1024EEEPKcmNS0_9idna_modeE.info, i64 16, i1 false)
  %conv = trunc i64 %length to i32
  %buf_.i = getelementptr inbounds i8, ptr %buf, i64 16
  %1 = load ptr, ptr %buf_.i, align 8
  %capacity_.i = getelementptr inbounds i8, ptr %buf, i64 8
  %2 = load i64, ptr %capacity_.i, align 8
  %conv6 = trunc i64 %2 to i32
  %call7 = call i32 @uidna_nameToASCII_UTF8_74(ptr noundef %call, ptr noundef %input, i32 noundef %conv, ptr noundef %1, i32 noundef %conv6, ptr noundef nonnull %info, ptr noundef nonnull %status) #21
  %3 = load i32, ptr %status, align 4
  %cmp8 = icmp eq i32 %3, 15
  br i1 %cmp8, label %if.then9, label %if.end16

if.then9:                                         ; preds = %if.end3
  store i32 0, ptr %status, align 4
  %conv10 = sext i32 %call7 to i64
  call void @_ZN4node16MaybeStackBufferIcLm1024EE25AllocateSufficientStorageEm(ptr noundef nonnull align 8 dereferenceable(1048) %buf, i64 noundef %conv10)
  %4 = load ptr, ptr %buf_.i, align 8
  %5 = load i64, ptr %capacity_.i, align 8
  %conv14 = trunc i64 %5 to i32
  %call15 = call i32 @uidna_nameToASCII_UTF8_74(ptr noundef %call, ptr noundef %input, i32 noundef %conv, ptr noundef %4, i32 noundef %conv14, ptr noundef nonnull %info, ptr noundef nonnull %status) #21
  %.pre = load i32, ptr %status, align 4
  br label %if.end16

if.end16:                                         ; preds = %if.then9, %if.end3
  %6 = phi i32 [ %.pre, %if.then9 ], [ %3, %if.end3 ]
  %len.0 = phi i32 [ %call15, %if.then9 ], [ %call7, %if.end3 ]
  %errors = getelementptr inbounds i8, ptr %info, i64 4
  %7 = load i32, ptr %errors, align 4
  %spec.select16.v = select i1 %cmp, i32 -57, i32 -64
  %spec.select16 = and i32 %7, %spec.select16.v
  store i32 %spec.select16, ptr %errors, align 4
  %cmp.i19 = icmp slt i32 %6, 1
  br i1 %cmp.i19, label %lor.lhs.false, label %if.end37

lor.lhs.false:                                    ; preds = %if.end16
  %cmp32 = icmp ne i32 %mode, 1
  %cmp34 = icmp ne i32 %spec.select16, 0
  %or.cond = select i1 %cmp32, i1 %cmp34, i1 false
  br i1 %or.cond, label %if.end37, label %if.else

if.else:                                          ; preds = %lor.lhs.false
  %conv36 = sext i32 %len.0 to i64
  %8 = load i64, ptr %capacity_.i, align 8
  %cmp.not.i = icmp ult i64 %8, %conv36
  br i1 %cmp.not.i, label %do.body4.i, label %if.end37

do.body4.i:                                       ; preds = %if.else
  call void @_ZN4node6AssertERKNS_13AssertionInfoE(ptr noundef nonnull align 8 dereferenceable(24) @_ZZN4node16MaybeStackBufferIcLm1024EE9SetLengthEmE4args) #21
  call void @abort() #22
  unreachable

if.end37:                                         ; preds = %if.else, %if.end16, %lor.lhs.false
  %storemerge = phi i64 [ 0, %lor.lhs.false ], [ 0, %if.end16 ], [ %conv36, %if.else ]
  %len.1 = phi i32 [ -1, %lor.lhs.false ], [ -1, %if.end16 ], [ %len.0, %if.else ]
  store i64 %storemerge, ptr %buf, align 8
  call void @uidna_close_74(ptr noundef %call) #21
  br label %return

return:                                           ; preds = %entry, %if.end37
  %retval.0 = phi i32 [ %len.1, %if.end37 ], [ -1, %entry ]
  ret i32 %retval.0
}